target datalayout = "e-m:e-p270:32:32-p271:32:32-p272:64:64-i64:64-i128:128-f80:128-n8:16:32:64-S128"
target triple = "x86_64-unknown-linux-gnu"

%struct.ResourceData = type { ptr, ptr, ptr, ptr, i32, i32, ptr, i32, i32, i8, i8, i8, i8 }
%"class.icu_75::ResourceDataValue" = type <{ %"class.icu_75::ResourceValue", ptr, ptr, i32, %"class.icu_75::ResourceTracer", [3 x i8] }>
%"class.icu_75::ResourceValue" = type { %"class.icu_75::UObject" }
%"class.icu_75::UObject" = type { ptr }
%"class.icu_75::ResourceTracer" = type { i8 }

; Function Attrs: mustprogress nounwind uwtable
define internal noundef signext i8 @_ZN12_GLOBAL__N_121isNoInheritanceMarkerEPK12ResourceDataj(ptr noundef %pResData, i32 noundef %res) #2 {
entry:
  %retval = alloca i8, align 1
  %pResData.addr = alloca ptr, align 8
  %res.addr = alloca i32, align 4
  %offset = alloca i32, align 4
  %p32 = alloca ptr, align 8
  %length = alloca i32, align 4
  %p = alloca ptr, align 8
  %p16 = alloca ptr, align 8
  %first = alloca i32, align 4
  store ptr %pResData, ptr %pResData.addr, align 8
  store i32 %res, ptr %res.addr, align 4
  %0 = load i32, ptr %res.addr, align 4
  %and = and i32 %0, 268435455
  store i32 %and, ptr %offset, align 4
  %1 = load i32, ptr %offset, align 4
  %cmp = icmp eq i32 %1, 0
  br i1 %cmp, label %if.then, label %if.else

if.then:                                          ; preds = %entry
  br label %if.end60

if.else:                                          ; preds = %entry
  %2 = load i32, ptr %res.addr, align 4
  %3 = load i32, ptr %offset, align 4
  %cmp1 = icmp eq i32 %2, %3
  br i1 %cmp1, label %if.then2, label %if.else13

if.then2:                                         ; preds = %if.else
  %4 = load ptr, ptr %pResData.addr, align 8
  %pRoot = getelementptr inbounds %struct.ResourceData, ptr %4, i32 0, i32 1
  %5 = load ptr, ptr %pRoot, align 8
  %6 = load i32, ptr %res.addr, align 4
  %idx.ext = zext i32 %6 to i64
  %add.ptr = getelementptr inbounds i32, ptr %5, i64 %idx.ext
  store ptr %add.ptr, ptr %p32, align 8
  %7 = load ptr, ptr %p32, align 8
  %8 = load i32, ptr %7, align 4
  store i32 %8, ptr %length, align 4
  %9 = load ptr, ptr %p32, align 8
  store ptr %9, ptr %p, align 8
  %10 = load i32, ptr %length, align 4
  %cmp3 = icmp eq i32 %10, 3
  br i1 %cmp3, label %land.lhs.true, label %land.end

land.lhs.true:                                    ; preds = %if.then2
  %11 = load ptr, ptr %p, align 8
  %arrayidx = getelementptr inbounds i16, ptr %11, i64 2
  %12 = load i16, ptr %arrayidx, align 2
  %conv = zext i16 %12 to i32
  %cmp4 = icmp eq i32 %conv, 8709
  br i1 %cmp4, label %land.lhs.true5, label %land.end

land.lhs.true5:                                   ; preds = %land.lhs.true
  %13 = load ptr, ptr %p, align 8
  %arrayidx6 = getelementptr inbounds i16, ptr %13, i64 3
  %14 = load i16, ptr %arrayidx6, align 2
  %conv7 = zext i16 %14 to i32
  %cmp8 = icmp eq i32 %conv7, 8709
  br i1 %cmp8, label %land.rhs, label %land.end

land.rhs:                                         ; preds = %land.lhs.true5
  %15 = load ptr, ptr %p, align 8
  %arrayidx9 = getelementptr inbounds i16, ptr %15, i64 4
  %16 = load i16, ptr %arrayidx9, align 2
  %conv10 = zext i16 %16 to i32
  %cmp11 = icmp eq i32 %conv10, 8709
  br label %land.end

land.end:                                         ; preds = %land.rhs, %land.lhs.true5, %land.lhs.true, %if.then2
  %17 = phi i1 [ false, %land.lhs.true5 ], [ false, %land.lhs.true ], [ false, %if.then2 ], [ %cmp11, %land.rhs ]
  %conv12 = zext i1 %17 to i8
  store i8 %conv12, ptr %retval, align 1
  br label %return

if.else13:                                        ; preds = %if.else
  %18 = load i32, ptr %res.addr, align 4
  %shr = lshr i32 %18, 28
  %cmp14 = icmp eq i32 %shr, 6
  br i1 %cmp14, label %if.then15, label %if.end58

if.then15:                                        ; preds = %if.else13
  %19 = load i32, ptr %offset, align 4
  %20 = load ptr, ptr %pResData.addr, align 8
  %poolStringIndexLimit = getelementptr inbounds %struct.ResourceData, ptr %20, i32 0, i32 7
  %21 = load i32, ptr %poolStringIndexLimit, align 8
  %cmp17 = icmp slt i32 %19, %21
  br i1 %cmp17, label %if.then18, label %if.else21

if.then18:                                        ; preds = %if.then15
  %22 = load ptr, ptr %pResData.addr, align 8
  %poolBundleStrings = getelementptr inbounds %struct.ResourceData, ptr %22, i32 0, i32 6
  %23 = load ptr, ptr %poolBundleStrings, align 8
  %24 = load i32, ptr %offset, align 4
  %idx.ext19 = zext i32 %24 to i64
  %add.ptr20 = getelementptr inbounds i16, ptr %23, i64 %idx.ext19
  store ptr %add.ptr20, ptr %p16, align 8
  br label %if.end

if.else21:                                        ; preds = %if.then15
  %25 = load ptr, ptr %pResData.addr, align 8
  %p16BitUnits = getelementptr inbounds %struct.ResourceData, ptr %25, i32 0, i32 2
  %26 = load ptr, ptr %p16BitUnits, align 8
  %27 = load i32, ptr %offset, align 4
  %28 = load ptr, ptr %pResData.addr, align 8
  %poolStringIndexLimit22 = getelementptr inbounds %struct.ResourceData, ptr %28, i32 0, i32 7
  %29 = load i32, ptr %poolStringIndexLimit22, align 8
  %sub = sub i32 %27, %29
  %idx.ext23 = zext i32 %sub to i64
  %add.ptr24 = getelementptr inbounds i16, ptr %26, i64 %idx.ext23
  store ptr %add.ptr24, ptr %p16, align 8
  br label %if.end

if.end:                                           ; preds = %if.else21, %if.then18
  %30 = load ptr, ptr %p16, align 8
  %31 = load i16, ptr %30, align 2
  %conv25 = zext i16 %31 to i32
  store i32 %conv25, ptr %first, align 4
  %32 = load i32, ptr %first, align 4
  %cmp26 = icmp eq i32 %32, 8709
  br i1 %cmp26, label %if.then27, label %if.else41

if.then27:                                        ; preds = %if.end
  %33 = load ptr, ptr %p16, align 8
  %arrayidx28 = getelementptr inbounds i16, ptr %33, i64 1
  %34 = load i16, ptr %arrayidx28, align 2
  %conv29 = zext i16 %34 to i32
  %cmp30 = icmp eq i32 %conv29, 8709
  br i1 %cmp30, label %land.lhs.true31, label %land.end39

land.lhs.true31:                                  ; preds = %if.then27
  %35 = load ptr, ptr %p16, align 8
  %arrayidx32 = getelementptr inbounds i16, ptr %35, i64 2
  %36 = load i16, ptr %arrayidx32, align 2
  %conv33 = zext i16 %36 to i32
  %cmp34 = icmp eq i32 %conv33, 8709
  br i1 %cmp34, label %land.rhs35, label %land.end39

land.rhs35:                                       ; preds = %land.lhs.true31
  %37 = load ptr, ptr %p16, align 8
  %arrayidx36 = getelementptr inbounds i16, ptr %37, i64 3
  %38 = load i16, ptr %arrayidx36, align 2
  %conv37 = zext i16 %38 to i32
  %cmp38 = icmp eq i32 %conv37, 0
  br label %land.end39

land.end39:                                       ; preds = %land.rhs35, %land.lhs.true31, %if.then27
  %39 = phi i1 [ false, %land.lhs.true31 ], [ false, %if.then27 ], [ %cmp38, %land.rhs35 ]
  %conv40 = zext i1 %39 to i8
  store i8 %conv40, ptr %retval, align 1
  br label %return

if.else41:                                        ; preds = %if.end
  %40 = load i32, ptr %first, align 4
  %cmp42 = icmp eq i32 %40, 56323
  br i1 %cmp42, label %if.then43, label %if.else57

if.then43:                                        ; preds = %if.else41
  %41 = load ptr, ptr %p16, align 8
  %arrayidx44 = getelementptr inbounds i16, ptr %41, i64 1
  %42 = load i16, ptr %arrayidx44, align 2
  %conv45 = zext i16 %42 to i32
  %cmp46 = icmp eq i32 %conv45, 8709
  br i1 %cmp46, label %land.lhs.true47, label %land.end55

land.lhs.true47:                                  ; preds = %if.then43
  %43 = load ptr, ptr %p16, align 8
  %arrayidx48 = getelementptr inbounds i16, ptr %43, i64 2
  %44 = load i16, ptr %arrayidx48, align 2
  %conv49 = zext i16 %44 to i32
  %cmp50 = icmp eq i32 %conv49, 8709
  br i1 %cmp50, label %land.rhs51, label %land.end55

land.rhs51:                                       ; preds = %land.lhs.true47
  %45 = load ptr, ptr %p16, align 8
  %arrayidx52 = getelementptr inbounds i16, ptr %45, i64 3
  %46 = load i16, ptr %arrayidx52, align 2
  %conv53 = zext i16 %46 to i32
  %cmp54 = icmp eq i32 %conv53, 8709
  br label %land.end55

land.end55:                                       ; preds = %land.rhs51, %land.lhs.true47, %if.then43
  %47 = phi i1 [ false, %land.lhs.true47 ], [ false, %if.then43 ], [ %cmp54, %land.rhs51 ]
  %conv56 = zext i1 %47 to i8
  store i8 %conv56, ptr %retval, align 1
  br label %return

if.else57:                                        ; preds = %if.else41
  store i8 0, ptr %retval, align 1
  br label %return

if.end58:                                         ; preds = %if.else13
  br label %if.end59

if.end59:                                         ; preds = %if.end58
  br label %if.end60

if.end60:                                         ; preds = %if.end59, %if.then
  store i8 0, ptr %retval, align 1
  br label %return

return:                                           ; preds = %if.end60, %if.else57, %land.end55, %land.end39, %land.end
  %48 = load i8, ptr %retval, align 1
  ret i8 %48
}

; Function Attrs: mustprogress nounwind uwtable
define linkonce_odr noundef nonnull align 8 dereferenceable(64) ptr @_ZNK6icu_7517ResourceDataValue7getDataEv(ptr noundef nonnull align 8 dereferenceable(29) %this) #2 comdat align 2 {
entry:
  %this.addr = alloca ptr, align 8
  store ptr %this, ptr %this.addr, align 8
  %this1 = load ptr, ptr %this.addr, align 8
  %pResData = getelementptr inbounds %"class.icu_75::ResourceDataValue", ptr %this1, i32 0, i32 1
  %0 = load ptr, ptr %pResData, align 8
  ret ptr %0
}

; Function Attrs: mustprogress uwtable
define noundef signext i8 @_ZNK6icu_7517ResourceDataValue21isNoInheritanceMarkerEv(ptr noundef nonnull align 8 dereferenceable(29) %this) unnamed_addr #0 align 2 {
entry:
  %this.addr = alloca ptr, align 8
  store ptr %this, ptr %this.addr, align 8
  %this1 = load ptr, ptr %this.addr, align 8
  %call = call noundef nonnull align 8 dereferenceable(64) ptr @_ZNK6icu_7517ResourceDataValue7getDataEv(ptr noundef nonnull align 8 dereferenceable(29) %this1)
  %res = getelementptr inbounds %"class.icu_75::ResourceDataValue", ptr %this1, i32 0, i32 3
  %0 = load i32, ptr %res, align 8
  %call2 = call noundef signext i8 @_ZN12_GLOBAL__N_121isNoInheritanceMarkerEPK12ResourceDataj(ptr noundef %call, i32 noundef %0)
  ret i8 %call2
}